; Function Attrs: mustprogress uwtable
define noundef double @_ZNK8QuantLib21FdmBlackScholesSolver7deltaAtEd(ptr noundef nonnull align 8 dereferenceable(208) %this, double noundef %s) local_unnamed_addr #1 align 2 {
entry:
  %vtable = load ptr, ptr %this, align 8, !tbaa !14
  %vfn = getelementptr inbounds i8, ptr %vtable, i64 24
  %0 = load ptr, ptr %vfn, align 8
  tail call void %0(ptr noundef nonnull align 8 dereferenceable(12) %this)
  %solver_ = getelementptr inbounds nuw i8, ptr %this, i64 192
  %1 = load ptr, ptr %solver_, align 8, !tbaa !103
  %cmp.not.i = icmp eq ptr %1, null
  br i1 %cmp.not.i, label %cond.false.i, label %_ZNK5boost10shared_ptrIN8QuantLib13Fdm1DimSolverEEptEv.exit, !prof !68

cond.false.i:                                     ; preds = %entry
  tail call void @_ZN5boost16assertion_failedEPKcS1_S1_l(ptr noundef nonnull @.str.10, ptr noundef nonnull @__PRETTY_FUNCTION__._ZNK5boost10shared_ptrIN8QuantLib13Fdm1DimSolverEEptEv, ptr noundef nonnull @.str.11, i64 noundef 784)
  %.pre.i = load ptr, ptr %solver_, align 8, !tbaa !103
  br label %_ZNK5boost10shared_ptrIN8QuantLib13Fdm1DimSolverEEptEv.exit

_ZNK5boost10shared_ptrIN8QuantLib13Fdm1DimSolverEEptEv.exit: ; preds = %entry, %cond.false.i
  %2 = phi ptr [ %1, %entry ], [ %.pre.i, %cond.false.i ]
  %call2 = tail call double @log(double noundef %s) #27, !tbaa !99
  %call3 = tail call noundef double @_ZNK8QuantLib13Fdm1DimSolver11derivativeXEd(ptr noundef nonnull align 8 dereferenceable(264) %2, double noundef %call2)
  %div = fdiv double %call3, %s
  ret double %div
}